target datalayout = "e-m:e-p270:32:32-p271:32:32-p272:64:64-i64:64-i128:128-f80:128-n8:16:32:64-S128"
target triple = "x86_64-pc-linux-gnu"

@.str.4 = private unnamed_addr constant [27 x i8] c"../openssl/test/drbgtest.c\00", align 1
@.str.13 = private unnamed_addr constant [8 x i8] c"primary\00", align 1
@.str.24 = private unnamed_addr constant [5 x i8] c"prov\00", align 1
@.str.25 = private unnamed_addr constant [14 x i8] c"FIPS Provider\00", align 1

; Function Attrs: nounwind uwtable
define internal i32 @using_fips_rng() #0 {
  %1 = alloca i32, align 4
  %2 = alloca ptr, align 8
  %3 = alloca ptr, align 8
  %4 = alloca ptr, align 8
  %5 = alloca i32, align 4
  call void @llvm.lifetime.start.p0(i64 8, ptr %2) #8
  %6 = call ptr @RAND_get0_primary(ptr noundef null)
  store ptr %6, ptr %2, align 8, !tbaa !8
  call void @llvm.lifetime.start.p0(i64 8, ptr %3) #8
  call void @llvm.lifetime.start.p0(i64 8, ptr %4) #8
  %7 = load ptr, ptr %2, align 8, !tbaa !8
  %8 = call i32 @test_ptr(ptr noundef @.str.4, i32 noundef 138, ptr noundef @.str.13, ptr noundef %7)
  %9 = icmp ne i32 %8, 0
  br i1 %9, label %11, label %10

10:                                               ; preds = %0
  store i32 0, ptr %1, align 4
  store i32 1, ptr %5, align 4
  br label %26

11:                                               ; preds = %0
  %12 = load ptr, ptr %2, align 8, !tbaa !8
  %13 = call ptr @EVP_RAND_CTX_get0_rand(ptr noundef %12)
  %14 = call ptr @EVP_RAND_get0_provider(ptr noundef %13)
  store ptr %14, ptr %3, align 8, !tbaa !20
  %15 = load ptr, ptr %3, align 8, !tbaa !20
  %16 = call i32 @test_ptr(ptr noundef @.str.4, i32 noundef 142, ptr noundef @.str.24, ptr noundef %15)
  %17 = icmp ne i32 %16, 0
  br i1 %17, label %19, label %18

18:                                               ; preds = %11
  store i32 0, ptr %1, align 4
  store i32 1, ptr %5, align 4
  br label %26

19:                                               ; preds = %11
  %20 = load ptr, ptr %3, align 8, !tbaa !20
  %21 = call ptr @OSSL_PROVIDER_get0_name(ptr noundef %20)
  store ptr %21, ptr %4, align 8, !tbaa !22
  %22 = load ptr, ptr %4, align 8, !tbaa !22
  %23 = call ptr @strstr(ptr noundef %22, ptr noundef @.str.25) #9
  %24 = icmp ne ptr %23, null
  %25 = zext i1 %24 to i32
  store i32 %25, ptr %1, align 4
  store i32 1, ptr %5, align 4
  br label %26

26:                                               ; preds = %19, %18, %10
  call void @llvm.lifetime.end.p0(i64 8, ptr %4) #8
  call void @llvm.lifetime.end.p0(i64 8, ptr %3) #8
  call void @llvm.lifetime.end.p0(i64 8, ptr %2) #8
  %27 = load i32, ptr %1, align 4
  ret i32 %27
}