; Function Attrs: nounwind uwtable
define internal fastcc range(i32 0, 2) i32 @using_fips_rng() unnamed_addr #0 {
  %1 = tail call ptr @RAND_get0_primary(ptr noundef null) #14
  %2 = tail call i32 @test_ptr(ptr noundef nonnull @.str.4, i32 noundef 138, ptr noundef nonnull @.str.13, ptr noundef %1) #14
  %.not = icmp eq i32 %2, 0
  br i1 %.not, label %12, label %3

3:                                                ; preds = %0
  %4 = tail call ptr @EVP_RAND_CTX_get0_rand(ptr noundef %1) #14
  %5 = tail call ptr @EVP_RAND_get0_provider(ptr noundef %4) #14
  %6 = tail call i32 @test_ptr(ptr noundef nonnull @.str.4, i32 noundef 142, ptr noundef nonnull @.str.24, ptr noundef %5) #14
  %.not5 = icmp eq i32 %6, 0
  br i1 %.not5, label %12, label %7

7:                                                ; preds = %3
  %8 = tail call ptr @OSSL_PROVIDER_get0_name(ptr noundef %5) #14
  %9 = tail call ptr @strstr(ptr noundef nonnull dereferenceable(1) %8, ptr noundef nonnull dereferenceable(1) @.str.25) #16
  %10 = icmp ne ptr %9, null
  %11 = zext i1 %10 to i32
  br label %12

12:                                               ; preds = %3, %0, %7
  %.0 = phi i32 [ %11, %7 ], [ 0, %0 ], [ 0, %3 ]
  ret i32 %.0
}